; Function Attrs: nounwind uwtable
define hidden i32 @allLoadedClasses(ptr noundef %0, ptr noundef %1) local_unnamed_addr #0 {
  store i32 0, ptr %1, align 4
  store ptr null, ptr %0, align 8
  %3 = load ptr, ptr @gdata, align 8
  %4 = getelementptr inbounds i8, ptr %3, i64 528
  %5 = load i32, ptr %4, align 8
  %6 = and i32 %5, 4
  %.not = icmp eq i32 %6, 0
  br i1 %.not, label %8, label %7

7:                                                ; preds = %2
  tail call void @log_message_begin(ptr noundef nonnull @.str.45, ptr noundef nonnull @.str.4, i32 noundef 1351) #14
  tail call void (ptr, ...) @log_message_end(ptr noundef nonnull @.str.9, ptr noundef nonnull @.str.108) #14
  %.pre = load ptr, ptr @gdata, align 8
  br label %8

8:                                                ; preds = %2, %7
  %9 = phi ptr [ %3, %2 ], [ %.pre, %7 ]
  %10 = load ptr, ptr %9, align 8
  %11 = load ptr, ptr %10, align 8
  %12 = getelementptr inbounds i8, ptr %11, i64 616
  %13 = load ptr, ptr %12, align 8
  %14 = tail call i32 %13(ptr noundef nonnull %10, ptr noundef nonnull %1, ptr noundef nonnull %0) #14
  ret i32 %14
}